target datalayout = "e-m:e-p270:32:32-p271:32:32-p272:64:64-i64:64-i128:128-f80:128-n8:16:32:64-S128"
target triple = "x86_64-pc-linux-gnu"

%struct.option_handler = type { ptr, ptr, ptr }
%struct.wtapng_block_s = type { i32, i32, ptr, ptr, ptr }
%struct.section_info_t = type { i32, i16, i16, ptr, i64, i32, i64, i64 }

@option_handlers = internal global [7 x ptr] zeroinitializer, align 16

; Function Attrs: nounwind uwtable
define internal i32 @pcapng_process_unhandled_option(ptr noundef %0, i32 noundef %1, ptr noundef %2, i16 noundef zeroext %3, i16 noundef zeroext %4, ptr noundef %5, ptr noundef %6, ptr noundef %7) #0 {
  %9 = alloca i32, align 4
  %10 = alloca ptr, align 8
  %11 = alloca i32, align 4
  %12 = alloca ptr, align 8
  %13 = alloca i16, align 2
  %14 = alloca i16, align 2
  %15 = alloca ptr, align 8
  %16 = alloca ptr, align 8
  %17 = alloca ptr, align 8
  %18 = alloca ptr, align 8
  store ptr %0, ptr %10, align 8
  store i32 %1, ptr %11, align 4
  store ptr %2, ptr %12, align 8
  store i16 %3, ptr %13, align 2
  store i16 %4, ptr %14, align 2
  store ptr %5, ptr %15, align 8
  store ptr %6, ptr %16, align 8
  store ptr %7, ptr %17, align 8
  %19 = load i32, ptr %11, align 4
  %20 = zext i32 %19 to i64
  %21 = getelementptr [7 x ptr], ptr @option_handlers, i64 0, i64 %20
  %22 = load ptr, ptr %21, align 8
  %23 = icmp ne ptr %22, null
  br i1 %23, label %24, label %54

24:                                               ; preds = %8
  %25 = load i32, ptr %11, align 4
  %26 = zext i32 %25 to i64
  %27 = getelementptr [7 x ptr], ptr @option_handlers, i64 0, i64 %26
  %28 = load ptr, ptr %27, align 8
  %29 = load i16, ptr %13, align 2
  %30 = zext i16 %29 to i32
  %31 = zext i32 %30 to i64
  %32 = inttoptr i64 %31 to ptr
  %33 = call ptr @g_hash_table_lookup(ptr noundef %28, ptr noundef %32)
  store ptr %33, ptr %18, align 8
  %34 = icmp ne ptr %33, null
  br i1 %34, label %35, label %54

35:                                               ; preds = %24
  %36 = load ptr, ptr %18, align 8
  %37 = getelementptr inbounds %struct.option_handler, ptr %36, i32 0, i32 0
  %38 = load ptr, ptr %37, align 8
  %39 = load ptr, ptr %10, align 8
  %40 = getelementptr inbounds %struct.wtapng_block_s, ptr %39, i32 0, i32 2
  %41 = load ptr, ptr %40, align 8
  %42 = load ptr, ptr %12, align 8
  %43 = getelementptr inbounds %struct.section_info_t, ptr %42, i32 0, i32 0
  %44 = load i32, ptr %43, align 8
  %45 = load i16, ptr %14, align 2
  %46 = zext i16 %45 to i32
  %47 = load ptr, ptr %15, align 8
  %48 = load ptr, ptr %16, align 8
  %49 = load ptr, ptr %17, align 8
  %50 = call i32 %38(ptr noundef %41, i32 noundef %44, i32 noundef %46, ptr noundef %47, ptr noundef %48, ptr noundef %49)
  %51 = icmp ne i32 %50, 0
  br i1 %51, label %53, label %52

52:                                               ; preds = %35
  store i32 0, ptr %9, align 4
  br label %55

53:                                               ; preds = %35
  br label %54

54:                                               ; preds = %53, %24, %8
  store i32 1, ptr %9, align 4
  br label %55

55:                                               ; preds = %54, %52
  %56 = load i32, ptr %9, align 4
  ret i32 %56
}

; Function Attrs: nounwind uwtable
define void @pcapng_process_string_option(ptr noundef %0, i16 noundef zeroext %1, i16 noundef zeroext %2, ptr noundef %3) #0 {
  %5 = alloca ptr, align 8
  %6 = alloca i16, align 2
  %7 = alloca i16, align 2
  %8 = alloca ptr, align 8
  %9 = alloca ptr, align 8
  %10 = alloca i64, align 8
  %11 = alloca ptr, align 8
  store ptr %0, ptr %5, align 8
  store i16 %1, ptr %6, align 2
  store i16 %2, ptr %7, align 2
  store ptr %3, ptr %8, align 8
  %12 = load ptr, ptr %8, align 8
  store ptr %12, ptr %9, align 8
  %13 = load i16, ptr %7, align 2
  %14 = zext i16 %13 to i64
  store i64 %14, ptr %10, align 8
  %15 = load ptr, ptr %9, align 8
  %16 = load i64, ptr %10, align 8
  %17 = call ptr @ws_utf8_make_valid(ptr noundef null, ptr noundef %15, i64 noundef %16)
  store ptr %17, ptr %11, align 8
  %18 = load ptr, ptr %5, align 8
  %19 = getelementptr inbounds %struct.wtapng_block_s, ptr %18, i32 0, i32 2
  %20 = load ptr, ptr %19, align 8
  %21 = load i16, ptr %6, align 2
  %22 = zext i16 %21 to i32
  %23 = load ptr, ptr %11, align 8
  %24 = call i32 @wtap_block_add_string_option_owned(ptr noundef %20, i32 noundef %22, ptr noundef %23)
  ret void
}

; Function Attrs: nounwind uwtable
define internal i32 @pcapng_process_section_header_block_option(ptr noundef %0, ptr noundef %1, i16 noundef zeroext %2, i16 noundef zeroext %3, ptr noundef %4, ptr noundef %5, ptr noundef %6) #0 {
  %8 = alloca i32, align 4
  %9 = alloca ptr, align 8
  %10 = alloca ptr, align 8
  %11 = alloca i16, align 2
  %12 = alloca i16, align 2
  %13 = alloca ptr, align 8
  %14 = alloca ptr, align 8
  %15 = alloca ptr, align 8
  store ptr %0, ptr %9, align 8
  store ptr %1, ptr %10, align 8
  store i16 %2, ptr %11, align 2
  store i16 %3, ptr %12, align 2
  store ptr %4, ptr %13, align 8
  store ptr %5, ptr %14, align 8
  store ptr %6, ptr %15, align 8
  %16 = load i16, ptr %11, align 2
  %17 = zext i16 %16 to i32
  switch i32 %17, label %33 [
    i32 2, label %18
    i32 3, label %23
    i32 4, label %28
  ]

18:                                               ; preds = %7
  %19 = load ptr, ptr %9, align 8
  %20 = load i16, ptr %11, align 2
  %21 = load i16, ptr %12, align 2
  %22 = load ptr, ptr %13, align 8
  call void @pcapng_process_string_option(ptr noundef %19, i16 noundef zeroext %20, i16 noundef zeroext %21, ptr noundef %22)
  br label %45

23:                                               ; preds = %7
  %24 = load ptr, ptr %9, align 8
  %25 = load i16, ptr %11, align 2
  %26 = load i16, ptr %12, align 2
  %27 = load ptr, ptr %13, align 8
  call void @pcapng_process_string_option(ptr noundef %24, i16 noundef zeroext %25, i16 noundef zeroext %26, ptr noundef %27)
  br label %45

28:                                               ; preds = %7
  %29 = load ptr, ptr %9, align 8
  %30 = load i16, ptr %11, align 2
  %31 = load i16, ptr %12, align 2
  %32 = load ptr, ptr %13, align 8
  call void @pcapng_process_string_option(ptr noundef %29, i16 noundef zeroext %30, i16 noundef zeroext %31, ptr noundef %32)
  br label %45

33:                                               ; preds = %7
  %34 = load ptr, ptr %9, align 8
  %35 = load ptr, ptr %10, align 8
  %36 = load i16, ptr %11, align 2
  %37 = load i16, ptr %12, align 2
  %38 = load ptr, ptr %13, align 8
  %39 = load ptr, ptr %14, align 8
  %40 = load ptr, ptr %15, align 8
  %41 = call i32 @pcapng_process_unhandled_option(ptr noundef %34, i32 noundef 0, ptr noundef %35, i16 noundef zeroext %36, i16 noundef zeroext %37, ptr noundef %38, ptr noundef %39, ptr noundef %40)
  %42 = icmp ne i32 %41, 0
  br i1 %42, label %44, label %43

43:                                               ; preds = %33
  store i32 0, ptr %8, align 4
  br label %46

44:                                               ; preds = %33
  br label %45

45:                                               ; preds = %44, %28, %23, %18
  store i32 1, ptr %8, align 4
  br label %46

46:                                               ; preds = %45, %43
  %47 = load i32, ptr %8, align 4
  ret i32 %47
}