; Function Attrs: nounwind uwtable
define internal range(i32 0, 2) i32 @pcapng_process_section_header_block_option(ptr noundef readonly captures(none) %0, ptr noundef readonly captures(none) %1, i16 noundef zeroext %2, i16 noundef zeroext %3, ptr noundef %4, ptr noundef %5, ptr noundef %6) #0 {
  switch i16 %2, label %26 [
    i16 2, label %8
    i16 3, label %14
    i16 4, label %20
  ]

8:                                                ; preds = %7
  %9 = zext i16 %3 to i64
  %10 = tail call ptr @ws_utf8_make_valid(ptr noundef null, ptr noundef %4, i64 noundef %9) #16
  %11 = getelementptr inbounds nuw i8, ptr %0, i64 8
  %12 = load ptr, ptr %11, align 8
  %13 = tail call i32 @wtap_block_add_string_option_owned(ptr noundef %12, i32 noundef 2, ptr noundef %10) #16
  br label %pcapng_process_unhandled_option.exit

14:                                               ; preds = %7
  %15 = zext i16 %3 to i64
  %16 = tail call ptr @ws_utf8_make_valid(ptr noundef null, ptr noundef %4, i64 noundef %15) #16
  %17 = getelementptr inbounds nuw i8, ptr %0, i64 8
  %18 = load ptr, ptr %17, align 8
  %19 = tail call i32 @wtap_block_add_string_option_owned(ptr noundef %18, i32 noundef 3, ptr noundef %16) #16
  br label %pcapng_process_unhandled_option.exit

20:                                               ; preds = %7
  %21 = zext i16 %3 to i64
  %22 = tail call ptr @ws_utf8_make_valid(ptr noundef null, ptr noundef %4, i64 noundef %21) #16
  %23 = getelementptr inbounds nuw i8, ptr %0, i64 8
  %24 = load ptr, ptr %23, align 8
  %25 = tail call i32 @wtap_block_add_string_option_owned(ptr noundef %24, i32 noundef 4, ptr noundef %22) #16
  br label %pcapng_process_unhandled_option.exit

26:                                               ; preds = %7
  %27 = load ptr, ptr @option_handlers, align 16
  %.not.i = icmp eq ptr %27, null
  br i1 %.not.i, label %pcapng_process_unhandled_option.exit, label %28

28:                                               ; preds = %26
  %29 = zext i16 %2 to i64
  %30 = inttoptr i64 %29 to ptr
  %31 = tail call ptr @g_hash_table_lookup(ptr noundef nonnull %27, ptr noundef %30) #16
  %.not12.i = icmp eq ptr %31, null
  br i1 %.not12.i, label %pcapng_process_unhandled_option.exit, label %32

32:                                               ; preds = %28
  %33 = load ptr, ptr %31, align 8
  %34 = getelementptr inbounds nuw i8, ptr %0, i64 8
  %35 = load ptr, ptr %34, align 8
  %36 = load i32, ptr %1, align 8
  %37 = zext i16 %3 to i32
  %38 = tail call i32 %33(ptr noundef %35, i32 noundef %36, i32 noundef %37, ptr noundef %4, ptr noundef %5, ptr noundef %6) #16
  %.not13.i = icmp ne i32 %38, 0
  %spec.select = zext i1 %.not13.i to i32
  br label %pcapng_process_unhandled_option.exit

pcapng_process_unhandled_option.exit:             ; preds = %32, %8, %14, %20, %26, %28
  %.0 = phi i32 [ 1, %28 ], [ 1, %26 ], [ 1, %20 ], [ 1, %14 ], [ 1, %8 ], [ %spec.select, %32 ]
  ret i32 %.0
}